; Function Attrs: mustprogress uwtable
define void @_ZN8facebook5velox4exec4Expr21computeDistinctFieldsEv(ptr noundef nonnull align 8 dereferenceable(442) %this) unnamed_addr #3 align 2 {
entry:
  %inputs_ = getelementptr inbounds i8, ptr %this, i64 24
  %0 = load ptr, ptr %inputs_, align 8
  %_M_finish.i = getelementptr inbounds i8, ptr %this, i64 32
  %1 = load ptr, ptr %_M_finish.i, align 8
  %cmp.i.not4 = icmp eq ptr %0, %1
  br i1 %cmp.i.not4, label %for.end, label %for.body.lr.ph

for.body.lr.ph:                                   ; preds = %entry
  %distinctFields_ = getelementptr inbounds i8, ptr %this, i64 168
  %multiplyReferencedFields_ = getelementptr inbounds i8, ptr %this, i64 192
  br label %for.body

for.body:                                         ; preds = %for.body.lr.ph, %for.body
  %__begin2.sroa.0.05 = phi ptr [ %0, %for.body.lr.ph ], [ %incdec.ptr.i, %for.body ]
  %2 = load ptr, ptr %__begin2.sroa.0.05, align 8
  %distinctFields_7 = getelementptr inbounds i8, ptr %2, i64 168
  tail call void @_ZN8facebook5velox4exec4Expr11mergeFieldsERSt6vectorIPNS1_14FieldReferenceESaIS5_EERSt13unordered_setIS5_St4hashIS5_ESt8equal_toIS5_ES6_ERKS7_(ptr noundef nonnull align 8 dereferenceable(24) %distinctFields_, ptr noundef nonnull align 8 dereferenceable(56) %multiplyReferencedFields_, ptr noundef nonnull align 8 dereferenceable(24) %distinctFields_7)
  %incdec.ptr.i = getelementptr inbounds i8, ptr %__begin2.sroa.0.05, i64 16
  %cmp.i.not = icmp eq ptr %incdec.ptr.i, %1
  br i1 %cmp.i.not, label %for.end, label %for.body

for.end:                                          ; preds = %for.body, %entry
  ret void
}